target datalayout = "e-m:e-p270:32:32-p271:32:32-p272:64:64-i64:64-i128:128-f80:128-n8:16:32:64-S128"
target triple = "x86_64-pc-linux-gnu"

%struct.ObjectAddress = type { i32, i32, i32 }
%struct.String = type { i32, ptr }
%struct.AlterOwnerStmt = type { i32, i32, ptr, ptr, ptr }

@.str.1 = private unnamed_addr constant [8 x i8] c"alter.c\00", align 1
@InvalidObjectAddress = external constant %struct.ObjectAddress, align 4
@.str.3 = private unnamed_addr constant [37 x i8] c"unrecognized AlterOwnerStmt type: %d\00", align 1
@__func__.ExecAlterOwnerStmt = private unnamed_addr constant [19 x i8] c"ExecAlterOwnerStmt\00", align 1

; Function Attrs: nounwind uwtable
define dso_local { i64, i32 } @ExecAlterOwnerStmt(ptr noundef %0) #0 {
  %2 = alloca %struct.ObjectAddress, align 4
  %3 = alloca ptr, align 8
  %4 = alloca i32, align 4
  %5 = alloca { i64, i32 }, align 8
  %6 = alloca i32, align 4
  %7 = alloca { i64, i32 }, align 8
  %8 = alloca { i64, i32 }, align 8
  %9 = alloca { i64, i32 }, align 8
  %10 = alloca { i64, i32 }, align 8
  %11 = alloca { i64, i32 }, align 8
  %12 = alloca { i64, i32 }, align 8
  %13 = alloca { i64, i32 }, align 8
  %14 = alloca %struct.ObjectAddress, align 4
  %15 = alloca { i64, i32 }, align 8
  %16 = alloca { i64, i32 }, align 8
  store ptr %0, ptr %3, align 8
  call void @llvm.lifetime.start.p0(i64 4, ptr %4) #6
  %17 = load ptr, ptr %3, align 8
  %18 = getelementptr inbounds nuw %struct.AlterOwnerStmt, ptr %17, i32 0, i32 4
  %19 = load ptr, ptr %18, align 8
  %20 = call i32 @get_rolespec_oid(ptr noundef %19, i1 noundef zeroext false)
  store i32 %20, ptr %4, align 4
  %21 = load ptr, ptr %3, align 8
  %22 = getelementptr inbounds nuw %struct.AlterOwnerStmt, ptr %21, i32 0, i32 1
  %23 = load i32, ptr %22, align 4
  switch i32 %23, label %102 [
    i32 9, label %24
    i32 36, label %32
    i32 49, label %40
    i32 12, label %40
    i32 16, label %49
    i32 17, label %57
    i32 14, label %65
    i32 30, label %73
    i32 38, label %81
    i32 1, label %89
    i32 7, label %89
    i32 8, label %89
    i32 19, label %89
    i32 21, label %89
    i32 22, label %89
    i32 25, label %89
    i32 24, label %89
    i32 26, label %89
    i32 29, label %89
    i32 34, label %89
    i32 39, label %89
    i32 42, label %89
    i32 46, label %89
    i32 45, label %89
  ]

24:                                               ; preds = %1
  %25 = load ptr, ptr %3, align 8
  %26 = getelementptr inbounds nuw %struct.AlterOwnerStmt, ptr %25, i32 0, i32 3
  %27 = load ptr, ptr %26, align 8
  %28 = getelementptr inbounds nuw %struct.String, ptr %27, i32 0, i32 1
  %29 = load ptr, ptr %28, align 8
  %30 = load i32, ptr %4, align 4
  %31 = call { i64, i32 } @AlterDatabaseOwner(ptr noundef %29, i32 noundef %30)
  store { i64, i32 } %31, ptr %5, align 8
  call void @llvm.memcpy.p0.p0.i64(ptr align 4 %2, ptr align 8 %5, i64 12, i1 false)
  store i32 1, ptr %6, align 4
  br label %116

32:                                               ; preds = %1
  %33 = load ptr, ptr %3, align 8
  %34 = getelementptr inbounds nuw %struct.AlterOwnerStmt, ptr %33, i32 0, i32 3
  %35 = load ptr, ptr %34, align 8
  %36 = getelementptr inbounds nuw %struct.String, ptr %35, i32 0, i32 1
  %37 = load ptr, ptr %36, align 8
  %38 = load i32, ptr %4, align 4
  %39 = call { i64, i32 } @AlterSchemaOwner(ptr noundef %37, i32 noundef %38)
  store { i64, i32 } %39, ptr %7, align 8
  call void @llvm.memcpy.p0.p0.i64(ptr align 4 %2, ptr align 8 %7, i64 12, i1 false)
  store i32 1, ptr %6, align 4
  br label %116

40:                                               ; preds = %1, %1
  %41 = load ptr, ptr %3, align 8
  %42 = getelementptr inbounds nuw %struct.AlterOwnerStmt, ptr %41, i32 0, i32 3
  %43 = load ptr, ptr %42, align 8
  %44 = load i32, ptr %4, align 4
  %45 = load ptr, ptr %3, align 8
  %46 = getelementptr inbounds nuw %struct.AlterOwnerStmt, ptr %45, i32 0, i32 1
  %47 = load i32, ptr %46, align 4
  %48 = call { i64, i32 } @AlterTypeOwner(ptr noundef %43, i32 noundef %44, i32 noundef %47)
  store { i64, i32 } %48, ptr %8, align 8
  call void @llvm.memcpy.p0.p0.i64(ptr align 4 %2, ptr align 8 %8, i64 12, i1 false)
  store i32 1, ptr %6, align 4
  br label %116

49:                                               ; preds = %1
  %50 = load ptr, ptr %3, align 8
  %51 = getelementptr inbounds nuw %struct.AlterOwnerStmt, ptr %50, i32 0, i32 3
  %52 = load ptr, ptr %51, align 8
  %53 = getelementptr inbounds nuw %struct.String, ptr %52, i32 0, i32 1
  %54 = load ptr, ptr %53, align 8
  %55 = load i32, ptr %4, align 4
  %56 = call { i64, i32 } @AlterForeignDataWrapperOwner(ptr noundef %54, i32 noundef %55)
  store { i64, i32 } %56, ptr %9, align 8
  call void @llvm.memcpy.p0.p0.i64(ptr align 4 %2, ptr align 8 %9, i64 12, i1 false)
  store i32 1, ptr %6, align 4
  br label %116

57:                                               ; preds = %1
  %58 = load ptr, ptr %3, align 8
  %59 = getelementptr inbounds nuw %struct.AlterOwnerStmt, ptr %58, i32 0, i32 3
  %60 = load ptr, ptr %59, align 8
  %61 = getelementptr inbounds nuw %struct.String, ptr %60, i32 0, i32 1
  %62 = load ptr, ptr %61, align 8
  %63 = load i32, ptr %4, align 4
  %64 = call { i64, i32 } @AlterForeignServerOwner(ptr noundef %62, i32 noundef %63)
  store { i64, i32 } %64, ptr %10, align 8
  call void @llvm.memcpy.p0.p0.i64(ptr align 4 %2, ptr align 8 %10, i64 12, i1 false)
  store i32 1, ptr %6, align 4
  br label %116

65:                                               ; preds = %1
  %66 = load ptr, ptr %3, align 8
  %67 = getelementptr inbounds nuw %struct.AlterOwnerStmt, ptr %66, i32 0, i32 3
  %68 = load ptr, ptr %67, align 8
  %69 = getelementptr inbounds nuw %struct.String, ptr %68, i32 0, i32 1
  %70 = load ptr, ptr %69, align 8
  %71 = load i32, ptr %4, align 4
  %72 = call { i64, i32 } @AlterEventTriggerOwner(ptr noundef %70, i32 noundef %71)
  store { i64, i32 } %72, ptr %11, align 8
  call void @llvm.memcpy.p0.p0.i64(ptr align 4 %2, ptr align 8 %11, i64 12, i1 false)
  store i32 1, ptr %6, align 4
  br label %116

73:                                               ; preds = %1
  %74 = load ptr, ptr %3, align 8
  %75 = getelementptr inbounds nuw %struct.AlterOwnerStmt, ptr %74, i32 0, i32 3
  %76 = load ptr, ptr %75, align 8
  %77 = getelementptr inbounds nuw %struct.String, ptr %76, i32 0, i32 1
  %78 = load ptr, ptr %77, align 8
  %79 = load i32, ptr %4, align 4
  %80 = call { i64, i32 } @AlterPublicationOwner(ptr noundef %78, i32 noundef %79)
  store { i64, i32 } %80, ptr %12, align 8
  call void @llvm.memcpy.p0.p0.i64(ptr align 4 %2, ptr align 8 %12, i64 12, i1 false)
  store i32 1, ptr %6, align 4
  br label %116

81:                                               ; preds = %1
  %82 = load ptr, ptr %3, align 8
  %83 = getelementptr inbounds nuw %struct.AlterOwnerStmt, ptr %82, i32 0, i32 3
  %84 = load ptr, ptr %83, align 8
  %85 = getelementptr inbounds nuw %struct.String, ptr %84, i32 0, i32 1
  %86 = load ptr, ptr %85, align 8
  %87 = load i32, ptr %4, align 4
  %88 = call { i64, i32 } @AlterSubscriptionOwner(ptr noundef %86, i32 noundef %87)
  store { i64, i32 } %88, ptr %13, align 8
  call void @llvm.memcpy.p0.p0.i64(ptr align 4 %2, ptr align 8 %13, i64 12, i1 false)
  store i32 1, ptr %6, align 4
  br label %116

89:                                               ; preds = %1, %1, %1, %1, %1, %1, %1, %1, %1, %1, %1, %1, %1, %1, %1
  call void @llvm.lifetime.start.p0(i64 12, ptr %14) #6
  %90 = load ptr, ptr %3, align 8
  %91 = getelementptr inbounds nuw %struct.AlterOwnerStmt, ptr %90, i32 0, i32 1
  %92 = load i32, ptr %91, align 4
  %93 = load ptr, ptr %3, align 8
  %94 = getelementptr inbounds nuw %struct.AlterOwnerStmt, ptr %93, i32 0, i32 3
  %95 = load ptr, ptr %94, align 8
  %96 = call { i64, i32 } @get_object_address(i32 noundef %92, ptr noundef %95, ptr noundef null, i32 noundef 8, i1 noundef zeroext false)
  store { i64, i32 } %96, ptr %15, align 8
  call void @llvm.memcpy.p0.p0.i64(ptr align 4 %14, ptr align 8 %15, i64 12, i1 false)
  call void @llvm.memcpy.p0.p0.i64(ptr align 4 %2, ptr align 4 %14, i64 12, i1 false)
  call void @llvm.lifetime.end.p0(i64 12, ptr %14) #6
  %97 = getelementptr inbounds nuw %struct.ObjectAddress, ptr %2, i32 0, i32 0
  %98 = load i32, ptr %97, align 4
  %99 = getelementptr inbounds nuw %struct.ObjectAddress, ptr %2, i32 0, i32 1
  %100 = load i32, ptr %99, align 4
  %101 = load i32, ptr %4, align 4
  call void @AlterObjectOwner_internal(i32 noundef %98, i32 noundef %100, i32 noundef %101)
  store i32 1, ptr %6, align 4
  br label %116

102:                                              ; preds = %1
  br label %103

103:                                              ; preds = %102
  br i1 true, label %104, label %106

104:                                              ; preds = %103
  %105 = call zeroext i1 @errstart_cold(i32 noundef 21, ptr noundef null) #7
  br i1 %105, label %108, label %113

106:                                              ; preds = %103
  %107 = call zeroext i1 @errstart(i32 noundef 21, ptr noundef null)
  br i1 %107, label %108, label %113

108:                                              ; preds = %106, %104
  %109 = load ptr, ptr %3, align 8
  %110 = getelementptr inbounds nuw %struct.AlterOwnerStmt, ptr %109, i32 0, i32 1
  %111 = load i32, ptr %110, align 4
  %112 = call i32 (ptr, ...) @errmsg_internal(ptr noundef @.str.3, i32 noundef %111)
  call void @errfinish(ptr noundef @.str.1, i32 noundef 892, ptr noundef @__func__.ExecAlterOwnerStmt)
  br label %113

113:                                              ; preds = %108, %106, %104
  unreachable

114:                                              ; No predecessors!
  br label %115

115:                                              ; preds = %114
  call void @llvm.memcpy.p0.p0.i64(ptr align 4 %2, ptr align 4 @InvalidObjectAddress, i64 12, i1 false)
  store i32 1, ptr %6, align 4
  br label %116

116:                                              ; preds = %115, %89, %81, %73, %65, %57, %49, %40, %32, %24
  call void @llvm.lifetime.end.p0(i64 4, ptr %4) #6
  call void @llvm.memcpy.p0.p0.i64(ptr align 8 %16, ptr align 4 %2, i64 12, i1 false)
  %117 = load { i64, i32 }, ptr %16, align 8
  ret { i64, i32 } %117
}