; Function Attrs: nounwind uwtable
define dso_local { i64, i32 } @ExecAlterOwnerStmt(ptr noundef readonly captures(none) %0) local_unnamed_addr #0 {
  %2 = getelementptr inbounds nuw i8, ptr %0, i64 24
  %3 = load ptr, ptr %2, align 8
  %4 = tail call i32 @get_rolespec_oid(ptr noundef %3, i1 noundef zeroext false) #8
  %5 = getelementptr inbounds nuw i8, ptr %0, i64 4
  %6 = load i32, ptr %5, align 4
  switch i32 %6, label %57 [
    i32 9, label %7
    i32 36, label %13
    i32 49, label %19
    i32 12, label %19
    i32 16, label %23
    i32 17, label %29
    i32 14, label %35
    i32 30, label %41
    i32 38, label %47
    i32 1, label %53
    i32 7, label %53
    i32 8, label %53
    i32 19, label %53
    i32 21, label %53
    i32 22, label %53
    i32 25, label %53
    i32 24, label %53
    i32 26, label %53
    i32 29, label %53
    i32 34, label %53
    i32 39, label %53
    i32 42, label %53
    i32 46, label %53
    i32 45, label %53
  ]

7:                                                ; preds = %1
  %8 = getelementptr inbounds nuw i8, ptr %0, i64 16
  %9 = load ptr, ptr %8, align 8
  %10 = getelementptr inbounds nuw i8, ptr %9, i64 8
  %11 = load ptr, ptr %10, align 8
  %12 = tail call { i64, i32 } @AlterDatabaseOwner(ptr noundef %11, i32 noundef %4) #8
  %.fca.0.extract32 = extractvalue { i64, i32 } %12, 0
  %.sroa.11.0.extract.shift80 = lshr i64 %.fca.0.extract32, 32
  br label %61

13:                                               ; preds = %1
  %14 = getelementptr inbounds nuw i8, ptr %0, i64 16
  %15 = load ptr, ptr %14, align 8
  %16 = getelementptr inbounds nuw i8, ptr %15, i64 8
  %17 = load ptr, ptr %16, align 8
  %18 = tail call { i64, i32 } @AlterSchemaOwner(ptr noundef %17, i32 noundef %4) #8
  %.fca.0.extract28 = extractvalue { i64, i32 } %18, 0
  %.sroa.11.0.extract.shift78 = lshr i64 %.fca.0.extract28, 32
  br label %61

19:                                               ; preds = %1, %1
  %20 = getelementptr inbounds nuw i8, ptr %0, i64 16
  %21 = load ptr, ptr %20, align 8
  %22 = tail call { i64, i32 } @AlterTypeOwner(ptr noundef %21, i32 noundef %4, i32 noundef %6) #8
  %.fca.0.extract24 = extractvalue { i64, i32 } %22, 0
  %.sroa.11.0.extract.shift76 = lshr i64 %.fca.0.extract24, 32
  br label %61

23:                                               ; preds = %1
  %24 = getelementptr inbounds nuw i8, ptr %0, i64 16
  %25 = load ptr, ptr %24, align 8
  %26 = getelementptr inbounds nuw i8, ptr %25, i64 8
  %27 = load ptr, ptr %26, align 8
  %28 = tail call { i64, i32 } @AlterForeignDataWrapperOwner(ptr noundef %27, i32 noundef %4) #8
  %.fca.0.extract20 = extractvalue { i64, i32 } %28, 0
  %.sroa.11.0.extract.shift74 = lshr i64 %.fca.0.extract20, 32
  br label %61

29:                                               ; preds = %1
  %30 = getelementptr inbounds nuw i8, ptr %0, i64 16
  %31 = load ptr, ptr %30, align 8
  %32 = getelementptr inbounds nuw i8, ptr %31, i64 8
  %33 = load ptr, ptr %32, align 8
  %34 = tail call { i64, i32 } @AlterForeignServerOwner(ptr noundef %33, i32 noundef %4) #8
  %.fca.0.extract16 = extractvalue { i64, i32 } %34, 0
  %.sroa.11.0.extract.shift72 = lshr i64 %.fca.0.extract16, 32
  br label %61

35:                                               ; preds = %1
  %36 = getelementptr inbounds nuw i8, ptr %0, i64 16
  %37 = load ptr, ptr %36, align 8
  %38 = getelementptr inbounds nuw i8, ptr %37, i64 8
  %39 = load ptr, ptr %38, align 8
  %40 = tail call { i64, i32 } @AlterEventTriggerOwner(ptr noundef %39, i32 noundef %4) #8
  %.fca.0.extract12 = extractvalue { i64, i32 } %40, 0
  %.sroa.11.0.extract.shift70 = lshr i64 %.fca.0.extract12, 32
  br label %61

41:                                               ; preds = %1
  %42 = getelementptr inbounds nuw i8, ptr %0, i64 16
  %43 = load ptr, ptr %42, align 8
  %44 = getelementptr inbounds nuw i8, ptr %43, i64 8
  %45 = load ptr, ptr %44, align 8
  %46 = tail call { i64, i32 } @AlterPublicationOwner(ptr noundef %45, i32 noundef %4) #8
  %.fca.0.extract8 = extractvalue { i64, i32 } %46, 0
  %.sroa.11.0.extract.shift68 = lshr i64 %.fca.0.extract8, 32
  br label %61

47:                                               ; preds = %1
  %48 = getelementptr inbounds nuw i8, ptr %0, i64 16
  %49 = load ptr, ptr %48, align 8
  %50 = getelementptr inbounds nuw i8, ptr %49, i64 8
  %51 = load ptr, ptr %50, align 8
  %52 = tail call { i64, i32 } @AlterSubscriptionOwner(ptr noundef %51, i32 noundef %4) #8
  %.fca.0.extract4 = extractvalue { i64, i32 } %52, 0
  %.sroa.11.0.extract.shift66 = lshr i64 %.fca.0.extract4, 32
  br label %61

53:                                               ; preds = %1, %1, %1, %1, %1, %1, %1, %1, %1, %1, %1, %1, %1, %1, %1
  %54 = getelementptr inbounds nuw i8, ptr %0, i64 16
  %55 = load ptr, ptr %54, align 8
  %56 = tail call { i64, i32 } @get_object_address(i32 noundef %6, ptr noundef %55, ptr noundef null, i32 noundef 8, i1 noundef zeroext false) #8
  %.fca.0.extract = extractvalue { i64, i32 } %56, 0
  %.sroa.057.0.extract.trunc = trunc i64 %.fca.0.extract to i32
  %.sroa.11.0.extract.shift = lshr i64 %.fca.0.extract, 32
  %.sroa.11.0.extract.trunc = trunc nuw i64 %.sroa.11.0.extract.shift to i32
  tail call void @AlterObjectOwner_internal(i32 noundef %.sroa.057.0.extract.trunc, i32 noundef %.sroa.11.0.extract.trunc, i32 noundef %4)
  br label %61

57:                                               ; preds = %1
  %58 = tail call zeroext i1 @errstart_cold(i32 noundef 21, ptr noundef null) #9
  tail call void @llvm.assume(i1 %58)
  %59 = load i32, ptr %5, align 4
  %60 = tail call i32 (ptr, ...) @errmsg_internal(ptr noundef nonnull @.str.3, i32 noundef %59) #8
  tail call void @errfinish(ptr noundef nonnull @.str.1, i32 noundef 892, ptr noundef nonnull @__func__.ExecAlterOwnerStmt) #8
  unreachable

61:                                               ; preds = %53, %47, %41, %35, %29, %23, %19, %13, %7
  %.sroa.057.0 = phi i64 [ %.fca.0.extract, %53 ], [ %.fca.0.extract4, %47 ], [ %.fca.0.extract8, %41 ], [ %.fca.0.extract12, %35 ], [ %.fca.0.extract16, %29 ], [ %.fca.0.extract20, %23 ], [ %.fca.0.extract24, %19 ], [ %.fca.0.extract28, %13 ], [ %.fca.0.extract32, %7 ]
  %.sroa.11.0 = phi i64 [ %.sroa.11.0.extract.shift, %53 ], [ %.sroa.11.0.extract.shift66, %47 ], [ %.sroa.11.0.extract.shift68, %41 ], [ %.sroa.11.0.extract.shift70, %35 ], [ %.sroa.11.0.extract.shift72, %29 ], [ %.sroa.11.0.extract.shift74, %23 ], [ %.sroa.11.0.extract.shift76, %19 ], [ %.sroa.11.0.extract.shift78, %13 ], [ %.sroa.11.0.extract.shift80, %7 ]
  %.pn = phi { i64, i32 } [ %56, %53 ], [ %52, %47 ], [ %46, %41 ], [ %40, %35 ], [ %34, %29 ], [ %28, %23 ], [ %22, %19 ], [ %18, %13 ], [ %12, %7 ]
  %.sroa.12.0 = extractvalue { i64, i32 } %.pn, 1
  %.sroa.11.0.insert.shift = shl nuw i64 %.sroa.11.0, 32
  %.sroa.057.0.insert.ext = and i64 %.sroa.057.0, 4294967295
  %.sroa.057.0.insert.insert = or disjoint i64 %.sroa.11.0.insert.shift, %.sroa.057.0.insert.ext
  %.fca.0.insert = insertvalue { i64, i32 } poison, i64 %.sroa.057.0.insert.insert, 0
  %.fca.1.insert = insertvalue { i64, i32 } %.fca.0.insert, i32 %.sroa.12.0, 1
  ret { i64, i32 } %.fca.1.insert
}